; Function Attrs: mustprogress nofree norecurse nosync nounwind willreturn memory(argmem: read) uwtable
define noundef i32 @_ZNK6icu_756number4impl17ParsedPatternInfo6lengthEi(ptr nocapture noundef nonnull readonly align 8 dereferenceable(433) %this, i32 noundef %flags) unnamed_addr #8 align 2 {
entry:
  %and.i = and i32 %flags, 256
  %cmp.not.i = icmp eq i32 %and.i, 0
  %and2.i = and i32 %flags, 512
  %cmp3.not.i = icmp eq i32 %and2.i, 0
  %0 = and i32 %flags, 1536
  %brmerge.not.i = icmp eq i32 %0, 1536
  br i1 %brmerge.not.i, label %_ZNK6icu_756number4impl17ParsedPatternInfo12getEndpointsEi.exit, label %if.else.i

if.else.i:                                        ; preds = %entry
  %and5.i = and i32 %flags, 1024
  %cmp6.not.i = icmp eq i32 %and5.i, 0
  br i1 %cmp6.not.i, label %if.else12.i, label %_ZNK6icu_756number4impl17ParsedPatternInfo12getEndpointsEi.exit

if.else12.i:                                      ; preds = %if.else.i
  %1 = and i32 %flags, 768
  %brmerge7.not.i = icmp eq i32 %1, 768
  br i1 %brmerge7.not.i, label %_ZNK6icu_756number4impl17ParsedPatternInfo12getEndpointsEi.exit, label %if.else18.i

if.else18.i:                                      ; preds = %if.else12.i
  %..i = select i1 %cmp3.not.i, i64 224, i64 392
  %spec.select.i = select i1 %cmp.not.i, i64 %..i, i64 216
  br label %_ZNK6icu_756number4impl17ParsedPatternInfo12getEndpointsEi.exit

_ZNK6icu_756number4impl17ParsedPatternInfo12getEndpointsEi.exit: ; preds = %entry, %if.else.i, %if.else12.i, %if.else18.i
  %.sink.i = phi i64 [ 400, %entry ], [ 232, %if.else.i ], [ 384, %if.else12.i ], [ %spec.select.i, %if.else18.i ]
  %suffixEndpoints29.i = getelementptr inbounds i8, ptr %this, i64 %.sink.i
  %end.i = getelementptr inbounds i8, ptr %suffixEndpoints29.i, i64 4
  %2 = load i32, ptr %end.i, align 4
  %3 = load i32, ptr %suffixEndpoints29.i, align 4
  %sub.i = sub nsw i32 %2, %3
  ret i32 %sub.i
}